Certificate:
    Data:
        Version: 3 (0x2)
        Serial Number:
            08:52:b2:2a:7b:5c:c0:20:3f:0b:16:ff:dd:9b:dd:c6
        Signature Algorithm: sha256WithRSAEncryption
        Issuer: CN=penguin
        Validity
            Not Before: Jun 23 22:39:30 2024 GMT
            Not After : Sep 26 22:39:30 2026 GMT
        Subject: CN=client
        Subject Public Key Info:
            Public Key Algorithm: rsaEncryption
                Public-Key: (2048 bit)
                Modulus:
                    00:9d:d1:3c:c9:05:3d:4d:22:cd:70:f2:74:ba:2e:
                    77:27:67:df:2e:45:77:f1:b5:f8:ae:99:ad:ba:f0:
                    c4:94:eb:20:b0:15:48:0c:9f:36:07:bd:64:66:25:
                    96:8e:10:71:50:e0:50:be:8a:4c:04:44:88:be:65:
                    ef:cb:64:dc:c2:7e:64:12:fe:05:9e:6c:20:7c:a1:
                    9b:ac:65:82:d7:7d:77:e6:d1:a3:90:49:e9:3a:33:
                    d0:a0:92:da:76:7c:5d:64:30:20:8f:7d:eb:83:58:
                    e1:ba:83:59:55:a4:0c:cb:da:a9:f0:64:ac:f3:79:
                    0f:ed:fd:24:15:db:65:52:c2:84:ec:b9:f1:06:2d:
                    a3:51:07:25:23:e3:92:21:3e:b6:d9:b4:86:c7:d1:
                    0b:d3:7a:c1:5c:ef:9d:2f:5c:8a:0d:be:dd:4a:54:
                    28:f4:76:80:0d:ff:01:80:9d:c0:79:ae:5c:d1:39:
                    88:79:d7:23:36:3e:65:f8:67:36:ec:9d:01:b8:95:
                    81:63:5e:21:5b:61:90:82:e0:41:8f:11:f9:f4:60:
                    a7:91:0f:21:b9:cd:94:b0:bb:32:06:26:8e:4a:12:
                    91:3a:81:41:0a:18:bb:cc:b7:7c:93:65:32:2f:0f:
                    98:04:6a:80:cc:26:dc:8f:bb:b7:1a:91:1a:d6:a2:
                    23:11
                Exponent: 65537 (0x10001)
        X509v3 extensions:
            X509v3 Basic Constraints: 
                CA:FALSE
            X509v3 Subject Key Identifier: 
                22:63:60:18:4E:CB:82:10:29:37:D0:97:46:9F:FA:11:40:8F:DB:EE
            X509v3 Authority Key Identifier: 
                keyid:21:3C:58:B2:DE:48:2E:63:F4:9A:72:5F:EB:9B:FE:56:F0:F6:F9:A8
                DirName:/CN=penguin
                serial:56:B6:32:D7:98:EB:70:3F:10:13:3B:C1:D0:00:BB:AE:6B:1A:33:B6
            X509v3 Extended Key Usage: 
                TLS Web Client Authentication
            X509v3 Key Usage: 
                Digital Signature
    Signature Algorithm: sha256WithRSAEncryption
    Signature Value:
        3e:2a:21:d5:a1:cf:2c:83:bf:00:e9:3c:5c:72:ea:f8:8d:52:
        7f:a2:17:09:52:0c:e3:7a:fe:6d:b9:fb:b8:34:9f:bd:d4:a8:
        48:d2:fc:ea:31:11:c5:f9:d9:df:18:a4:36:01:98:44:aa:ed:
        8f:75:02:fd:ed:0b:5c:62:cf:54:b9:6e:db:1e:c7:c7:68:36:
        c7:3c:57:84:a0:1d:75:0b:55:e7:ae:6a:59:90:2a:c5:87:21:
        31:39:8c:b8:33:10:1a:9f:53:cb:36:0b:d7:b6:d3:0c:53:e7:
        ef:f5:9c:e9:bb:9a:ca:7f:2e:ae:83:a6:3a:84:b8:f5:4f:8c:
        54:6c:e9:62:ad:eb:3e:51:3d:e4:02:47:ca:c6:b6:fe:53:52:
        03:21:98:3a:14:df:40:2f:43:b5:ba:19:a9:84:a6:35:f8:7a:
        4d:95:36:63:9c:dc:6e:d4:68:00:fd:6f:29:d7:21:55:3f:98:
        7c:10:10:c0:c5:90:6b:d8:84:ba:a1:9a:62:03:0c:8c:d0:8c:
        a1:b5:2d:78:5a:08:2c:5b:e0:92:dd:71:a4:2c:ff:92:d4:2d:
        e8:d3:92:67:ff:82:d3:9c:06:82:e7:53:41:f3:a1:a0:09:0c:
        21:82:a0:8e:0e:a2:8c:c9:0d:3a:41:1b:0b:7f:22:f6:0d:25:
        b4:f0:6a:49
-----BEGIN CERTIFICATE-----
MIIDTDCCAjSgAwIBAgIQCFKyKntcwCA/Cxb/3ZvdxjANBgkqhkiG9w0BAQsFADAS
MRAwDgYDVQQDDAdwZW5ndWluMB4XDTI0MDYyMzIyMzkzMFoXDTI2MDkyNjIyMzkz
MFowETEPMA0GA1UEAwwGY2xpZW50MIIBIjANBgkqhkiG9w0BAQEFAAOCAQ8AMIIB
CgKCAQEAndE8yQU9TSLNcPJ0ui53J2ffLkV38bX4rpmtuvDElOsgsBVIDJ82B71k
ZiWWjhBxUOBQvopMBESIvmXvy2Tcwn5kEv4FnmwgfKGbrGWC13135tGjkEnpOjPQ
oJLadnxdZDAgj33rg1jhuoNZVaQMy9qp8GSs83kP7f0kFdtlUsKE7LnxBi2jUQcl
I+OSIT622bSGx9EL03rBXO+dL1yKDb7dSlQo9HaADf8BgJ3Aea5c0TmIedcjNj5l
+Gc27J0BuJWBY14hW2GQguBBjxH59GCnkQ8huc2UsLsyBiaOShKROoFBChi7zLd8
k2UyLw+YBGqAzCbcj7u3GpEa1qIjEQIDAQABo4GeMIGbMAkGA1UdEwQCMAAwHQYD
VR0OBBYEFCJjYBhOy4IQKTfQl0af+hFAj9vuME0GA1UdIwRGMESAFCE8WLLeSC5j
9JpyX+ub/lbw9vmooRakFDASMRAwDgYDVQQDDAdwZW5ndWlughRWtjLXmOtwPxAT
O8HQALuuaxoztjATBgNVHSUEDDAKBggrBgEFBQcDAjALBgNVHQ8EBAMCB4AwDQYJ
KoZIhvcNAQELBQADggEBAD4qIdWhzyyDvwDpPFxy6viNUn+iFwlSDON6/m25+7g0
n73UqEjS/OoxEcX52d8YpDYBmESq7Y91Av3tC1xiz1S5btsex8doNsc8V4SgHXUL
VeeualmQKsWHITE5jLgzEBqfU8s2C9e20wxT5+/1nOm7msp/Lq6DpjqEuPVPjFRs
6WKt6z5RPeQCR8rGtv5TUgMhmDoU30AvQ7W6GamEpjX4ek2VNmOc3G7UaAD9bynX
IVU/mHwQEMDFkGvYhLqhmmIDDIzQjKG1LXhaCCxb4JLdcaQs/5LULejTkmf/gtOc
BoLnU0HzoaAJDCGCoI4OoozJDTpBGwt/IvYNJbTwakk=
-----END CERTIFICATE-----
