Certificate:
    Data:
        Version: 3 (0x2)
        Serial Number:
            57:10:f3:1a:c7:38:8e:9f:06:3e:8c:cf:d2:e4:16:66
        Signature Algorithm: sha256WithRSAEncryption
        Issuer: CN=penguin
        Validity
            Not Before: Jun 23 21:30:16 2024 GMT
            Not After : Sep 26 21:30:16 2026 GMT
        Subject: CN=client
        Subject Public Key Info:
            Public Key Algorithm: rsaEncryption
                Public-Key: (2048 bit)
                Modulus:
                    00:e9:88:66:80:2d:25:ac:04:c2:43:c1:b2:cd:85:
                    08:f3:7e:df:cc:a6:60:75:8e:6b:2e:51:d0:dc:86:
                    dc:b4:7d:d4:09:b0:b0:fb:ca:db:57:d0:1e:95:c6:
                    3b:4e:9c:30:e9:dd:66:35:0b:a6:07:db:f2:35:95:
                    a6:f4:bb:85:1a:ac:13:e8:ad:33:ef:61:ab:a6:fd:
                    8b:51:46:5a:d3:66:2f:f1:74:b1:e1:c4:73:ad:0f:
                    41:70:d4:dc:7a:d2:9c:16:18:0d:f8:ec:2d:37:c2:
                    ee:33:4f:da:4d:99:db:bf:db:b2:cb:cd:57:20:ef:
                    f5:62:7f:70:e8:3e:26:b7:eb:0d:e9:c5:c4:af:d9:
                    cf:5c:b2:5c:1b:28:d6:a8:99:5c:2d:c1:71:de:54:
                    ff:c8:3a:2a:bd:d1:7b:88:06:7c:1a:8f:ce:a7:a5:
                    dc:c3:85:2a:37:70:3f:11:e4:0a:f8:69:9f:8c:3a:
                    12:21:bd:e3:eb:e6:69:7f:04:71:eb:81:ad:a0:26:
                    07:73:4a:26:e2:ba:16:d7:81:1d:84:35:8e:a4:3a:
                    7e:54:68:c8:6a:1f:e0:c1:8f:ef:71:c3:89:ac:c8:
                    1b:1c:33:dc:c6:5d:cc:c8:70:5e:21:c7:65:f8:b1:
                    ab:c2:4f:aa:ec:02:db:73:26:3c:33:6e:fc:cf:57:
                    79:13
                Exponent: 65537 (0x10001)
        X509v3 extensions:
            X509v3 Basic Constraints: 
                CA:FALSE
            X509v3 Subject Key Identifier: 
                E7:31:CB:3B:4B:6D:C7:51:A2:4E:6D:6B:58:E0:C1:75:80:45:A8:55
            X509v3 Authority Key Identifier: 
                keyid:E6:55:57:1F:00:3C:AB:F8:5F:C4:F2:41:E6:56:41:EE:72:59:FC:FB
                DirName:/CN=penguin
                serial:29:11:FB:08:F3:EE:9D:5D:00:32:63:64:18:35:BE:A4:F9:FE:FF:04
            X509v3 Extended Key Usage: 
                TLS Web Client Authentication
            X509v3 Key Usage: 
                Digital Signature
    Signature Algorithm: sha256WithRSAEncryption
    Signature Value:
        a2:01:5f:a2:3e:88:dc:dc:24:ad:4e:38:bf:6c:9d:72:18:8b:
        d3:89:5e:c5:b7:c2:5c:40:4f:ee:05:d8:0c:58:23:10:05:e2:
        ad:95:6b:a8:d5:6d:57:b8:bf:81:9f:a5:f1:2f:59:01:90:08:
        44:d5:15:b5:91:46:7c:c6:6b:9b:c2:d3:a2:e5:62:f4:df:58:
        17:1c:94:72:a1:a5:3a:d1:ea:61:c2:fa:f3:95:b1:ca:ed:0f:
        83:ea:f2:15:e0:84:41:d9:72:f8:f6:5f:87:0f:a3:41:67:70:
        76:12:79:10:d7:d1:b5:b9:d0:58:a0:b3:21:14:f8:ae:ae:50:
        7f:26:fe:ab:c1:16:c8:97:5e:a0:bf:b6:5f:34:d2:12:66:95:
        fe:1d:45:69:2e:9d:40:af:f0:81:45:1c:f3:01:b3:75:76:6f:
        5b:11:f2:fa:21:1a:54:2a:a9:d5:be:d0:f9:98:62:41:e0:4f:
        86:38:0b:4b:b4:57:85:03:8e:42:73:5c:3b:54:e1:76:34:42:
        e0:2e:6a:9c:21:30:71:74:d6:eb:7d:d1:88:53:d6:37:73:ec:
        c3:6d:e0:26:29:5d:99:04:66:3b:8c:ca:fd:a2:41:ff:4f:5a:
        75:4e:1f:ed:5c:1d:3e:54:3b:86:e5:be:48:90:45:67:4f:ed:
        3b:98:19:18
-----BEGIN CERTIFICATE-----
MIIDTDCCAjSgAwIBAgIQVxDzGsc4jp8GPozP0uQWZjANBgkqhkiG9w0BAQsFADAS
MRAwDgYDVQQDDAdwZW5ndWluMB4XDTI0MDYyMzIxMzAxNloXDTI2MDkyNjIxMzAx
NlowETEPMA0GA1UEAwwGY2xpZW50MIIBIjANBgkqhkiG9w0BAQEFAAOCAQ8AMIIB
CgKCAQEA6YhmgC0lrATCQ8GyzYUI837fzKZgdY5rLlHQ3IbctH3UCbCw+8rbV9Ae
lcY7Tpww6d1mNQumB9vyNZWm9LuFGqwT6K0z72Grpv2LUUZa02Yv8XSx4cRzrQ9B
cNTcetKcFhgN+OwtN8LuM0/aTZnbv9uyy81XIO/1Yn9w6D4mt+sN6cXEr9nPXLJc
GyjWqJlcLcFx3lT/yDoqvdF7iAZ8Go/Op6Xcw4UqN3A/EeQK+GmfjDoSIb3j6+Zp
fwRx64GtoCYHc0om4roW14EdhDWOpDp+VGjIah/gwY/vccOJrMgbHDPcxl3MyHBe
Icdl+LGrwk+q7ALbcyY8M278z1d5EwIDAQABo4GeMIGbMAkGA1UdEwQCMAAwHQYD
VR0OBBYEFOcxyztLbcdRok5ta1jgwXWARahVME0GA1UdIwRGMESAFOZVVx8APKv4
X8TyQeZWQe5yWfz7oRakFDASMRAwDgYDVQQDDAdwZW5ndWlughQpEfsI8+6dXQAy
Y2QYNb6k+f7/BDATBgNVHSUEDDAKBggrBgEFBQcDAjALBgNVHQ8EBAMCB4AwDQYJ
KoZIhvcNAQELBQADggEBAKIBX6I+iNzcJK1OOL9snXIYi9OJXsW3wlxAT+4F2AxY
IxAF4q2Va6jVbVe4v4GfpfEvWQGQCETVFbWRRnzGa5vC06LlYvTfWBcclHKhpTrR
6mHC+vOVscrtD4Pq8hXghEHZcvj2X4cPo0FncHYSeRDX0bW50FigsyEU+K6uUH8m
/qvBFsiXXqC/tl800hJmlf4dRWkunUCv8IFFHPMBs3V2b1sR8vohGlQqqdW+0PmY
YkHgT4Y4C0u0V4UDjkJzXDtU4XY0QuAuapwhMHF01ut90YhT1jdz7MNt4CYpXZkE
ZjuMyv2iQf9PWnVOH+1cHT5UO4blvkiQRWdP7TuYGRg=
-----END CERTIFICATE-----
