Certificate:
    Data:
        Version: 3 (0x2)
        Serial Number:
            79:46:19:71:ad:f3:d3:56:61:ae:9b:f6:28:1a:68:57
        Signature Algorithm: sha256WithRSAEncryption
        Issuer: CN=penguin
        Validity
            Not Before: Jun 23 21:43:57 2024 GMT
            Not After : Sep 26 21:43:57 2026 GMT
        Subject: CN=192.168.1.26
        Subject Public Key Info:
            Public Key Algorithm: rsaEncryption
                Public-Key: (2048 bit)
                Modulus:
                    00:8f:51:f8:75:08:c2:b5:0a:6d:55:c7:27:7b:7c:
                    8b:19:e8:56:ef:c9:8d:35:f6:11:2e:63:0b:79:61:
                    fb:99:cd:08:54:c5:32:79:9a:21:c3:f1:19:b1:e3:
                    3f:e3:43:cc:63:ed:be:c5:11:d3:92:a3:5e:da:d7:
                    eb:0c:f7:dc:d1:07:2b:b4:1f:06:99:63:a2:db:ed:
                    30:0d:b6:44:cf:92:e7:d9:24:8a:e7:bc:2d:be:08:
                    8b:86:33:af:4e:0a:f4:69:10:4c:e4:74:6d:81:ef:
                    38:9a:22:95:49:ed:2a:5d:fd:43:42:ac:3b:8e:69:
                    4b:b0:cf:c9:cb:5e:e4:da:27:35:b3:b0:a5:a3:9c:
                    fb:60:0c:f8:d4:e5:12:11:cf:b6:84:43:9b:b7:c1:
                    3f:98:6c:60:7c:2a:1a:01:6d:df:06:e8:7e:d2:56:
                    21:1c:1d:8d:39:31:b2:94:22:fd:32:f2:e1:4d:5d:
                    65:10:1e:3f:69:47:31:d0:fa:b8:00:a9:2e:56:7b:
                    e0:95:e7:4e:90:19:fa:91:8d:12:49:db:fb:a5:d3:
                    57:e0:f1:5f:c7:74:b5:9f:7b:81:9e:9e:21:63:d3:
                    76:7f:5e:50:78:de:28:fc:d7:1b:0e:6a:65:c6:c5:
                    52:55:9a:a6:cc:12:9a:39:13:bb:61:fd:7b:96:91:
                    fa:cf
                Exponent: 65537 (0x10001)
        X509v3 extensions:
            X509v3 Basic Constraints: 
                CA:FALSE
            X509v3 Subject Key Identifier: 
                0D:39:36:4D:69:0E:0D:F3:75:E4:AE:EF:AD:8F:A2:4C:BB:9A:A6:DD
            X509v3 Authority Key Identifier: 
                keyid:2C:30:D1:61:80:65:A6:C8:B5:DA:0D:85:AF:E5:A1:80:B0:23:58:28
                DirName:/CN=penguin
                serial:62:AF:43:BE:AB:C0:9D:D9:3C:21:1D:3D:5F:1E:29:62:13:02:9C:53
            X509v3 Extended Key Usage: 
                TLS Web Server Authentication
            X509v3 Key Usage: 
                Digital Signature, Key Encipherment
            X509v3 Subject Alternative Name: 
                IP Address:192.168.1.26
    Signature Algorithm: sha256WithRSAEncryption
    Signature Value:
        1a:7d:66:33:6b:23:c6:03:5e:0b:e5:41:08:10:94:5f:d3:92:
        30:96:f4:f6:2f:14:7c:20:20:4c:e7:30:31:51:8e:0e:87:67:
        e1:0b:97:86:db:fa:ab:73:36:5d:dc:c5:ac:ae:8c:d9:32:66:
        0d:22:e2:86:bf:e4:8e:fe:b0:7a:d3:7c:1f:11:fa:f9:34:bb:
        5e:db:37:ef:78:b1:44:2f:6a:a2:dc:9a:22:26:b7:f5:6b:fd:
        0d:6d:03:00:2e:19:06:7c:cf:5a:80:aa:f9:cc:bf:1a:9a:1d:
        48:59:1f:75:17:5b:99:08:38:4b:d0:7c:dc:5f:c1:3a:65:d0:
        80:3a:96:b0:9f:21:af:46:95:3a:59:30:ad:15:44:05:89:ed:
        7e:d8:30:ae:f8:87:ee:c0:41:ea:70:bd:c9:35:e8:0a:75:b6:
        8c:47:28:24:a4:cb:a3:7a:21:01:fe:a8:47:e5:d0:bd:ff:fc:
        75:f4:cd:6d:44:a6:b7:26:88:d5:87:58:02:9a:c4:7b:95:b6:
        d4:59:1a:0b:c0:bd:5b:ca:17:b2:6b:38:0e:be:d2:f7:84:d9:
        df:d0:d8:f7:b4:75:1a:52:02:27:00:45:85:40:b2:9a:16:df:
        f5:8e:91:8a:36:af:be:fb:a5:bd:80:8f:7a:48:17:61:2b:dc:
        62:33:1d:b4
-----BEGIN CERTIFICATE-----
MIIDYzCCAkugAwIBAgIQeUYZca3z01Zhrpv2KBpoVzANBgkqhkiG9w0BAQsFADAS
MRAwDgYDVQQDDAdwZW5ndWluMB4XDTI0MDYyMzIxNDM1N1oXDTI2MDkyNjIxNDM1
N1owFzEVMBMGA1UEAwwMMTkyLjE2OC4xLjI2MIIBIjANBgkqhkiG9w0BAQEFAAOC
AQ8AMIIBCgKCAQEAj1H4dQjCtQptVccne3yLGehW78mNNfYRLmMLeWH7mc0IVMUy
eZohw/EZseM/40PMY+2+xRHTkqNe2tfrDPfc0QcrtB8GmWOi2+0wDbZEz5Ln2SSK
57wtvgiLhjOvTgr0aRBM5HRtge84miKVSe0qXf1DQqw7jmlLsM/Jy17k2ic1s7Cl
o5z7YAz41OUSEc+2hEObt8E/mGxgfCoaAW3fBuh+0lYhHB2NOTGylCL9MvLhTV1l
EB4/aUcx0Pq4AKkuVnvgledOkBn6kY0SSdv7pdNX4PFfx3S1n3uBnp4hY9N2f15Q
eN4o/NcbDmplxsVSVZqmzBKaORO7Yf17lpH6zwIDAQABo4GvMIGsMAkGA1UdEwQC
MAAwHQYDVR0OBBYEFA05Nk1pDg3zdeSu762Poky7mqbdME0GA1UdIwRGMESAFCww
0WGAZabItdoNha/loYCwI1gooRakFDASMRAwDgYDVQQDDAdwZW5ndWlughRir0O+
q8Cd2TwhHT1fHiliEwKcUzATBgNVHSUEDDAKBggrBgEFBQcDATALBgNVHQ8EBAMC
BaAwDwYDVR0RBAgwBocEwKgBGjANBgkqhkiG9w0BAQsFAAOCAQEAGn1mM2sjxgNe
C+VBCBCUX9OSMJb09i8UfCAgTOcwMVGODodn4QuXhtv6q3M2XdzFrK6M2TJmDSLi
hr/kjv6wetN8HxH6+TS7Xts373ixRC9qotyaIia39Wv9DW0DAC4ZBnzPWoCq+cy/
GpodSFkfdRdbmQg4S9B83F/BOmXQgDqWsJ8hr0aVOlkwrRVEBYntftgwrviH7sBB
6nC9yTXoCnW2jEcoJKTLo3ohAf6oR+XQvf/8dfTNbUSmtyaI1YdYAprEe5W21Fka
C8C9W8oXsms4Dr7S94TZ39DY97R1GlICJwBFhUCymhbf9Y6RijavvvulvYCPekgX
YSvcYjMdtA==
-----END CERTIFICATE-----
