Certificate:
    Data:
        Version: 3 (0x2)
        Serial Number:
            d8:c9:23:48:0f:38:22:2d:7e:d3:04:8c:ff:03:9b:b0
        Signature Algorithm: sha256WithRSAEncryption
        Issuer: CN=penguin
        Validity
            Not Before: Jun 23 22:33:08 2024 GMT
            Not After : Sep 26 22:33:08 2026 GMT
        Subject: CN=192.168.1.26
        Subject Public Key Info:
            Public Key Algorithm: rsaEncryption
                Public-Key: (2048 bit)
                Modulus:
                    00:b1:83:e1:1d:da:c0:db:07:15:52:75:3a:c2:dc:
                    dd:9b:ef:1d:ba:51:ef:44:81:cf:f9:34:09:08:c7:
                    86:6c:a3:65:72:cb:6e:3f:1a:56:c7:11:62:9f:ac:
                    b9:a7:1a:25:84:16:e2:4a:13:1b:81:66:77:b5:7d:
                    77:73:7d:9f:e3:5e:c0:a6:cd:0d:8b:b9:7b:4a:15:
                    8b:dc:2c:31:2c:f4:11:0b:cb:6c:f0:25:08:9d:d5:
                    8a:e5:bb:e5:83:65:a6:78:b4:17:6b:d0:ea:dd:0e:
                    db:ea:16:a7:4d:dc:d6:66:5d:11:ba:c2:42:61:8e:
                    cd:9f:66:bb:c3:b8:50:49:0e:e5:ba:ad:9c:45:df:
                    f0:bc:61:f3:54:48:fe:ff:ec:c8:d5:84:be:c0:d9:
                    8f:45:6b:09:1b:19:57:da:68:0b:4a:dd:1e:66:b2:
                    b8:60:a6:54:5d:3c:82:23:18:de:41:8f:2b:d3:34:
                    e2:39:c7:e2:81:ea:2b:b8:df:5d:70:52:e0:ad:06:
                    12:0c:ea:49:4a:e9:71:0b:e6:6e:ef:b6:f6:24:14:
                    b9:d3:46:03:48:fc:71:43:d8:d3:a6:03:21:2a:13:
                    d9:76:2e:7b:8e:e4:da:58:a3:43:6a:c6:77:32:72:
                    d5:08:42:05:b7:63:04:d9:56:b2:ce:76:2e:ba:9b:
                    58:51
                Exponent: 65537 (0x10001)
        X509v3 extensions:
            X509v3 Basic Constraints: 
                CA:FALSE
            X509v3 Subject Key Identifier: 
                5D:44:A3:5F:61:73:02:5B:B6:6A:67:AA:74:0E:C5:01:FD:17:9D:6D
            X509v3 Authority Key Identifier: 
                keyid:21:3C:58:B2:DE:48:2E:63:F4:9A:72:5F:EB:9B:FE:56:F0:F6:F9:A8
                DirName:/CN=penguin
                serial:56:B6:32:D7:98:EB:70:3F:10:13:3B:C1:D0:00:BB:AE:6B:1A:33:B6
            X509v3 Extended Key Usage: 
                TLS Web Server Authentication
            X509v3 Key Usage: 
                Digital Signature, Key Encipherment
            X509v3 Subject Alternative Name: 
                IP Address:192.168.1.26
    Signature Algorithm: sha256WithRSAEncryption
    Signature Value:
        3f:c2:85:88:cf:58:9a:a5:60:c5:d8:1f:41:8d:53:35:99:5b:
        3a:ad:56:0f:d2:b9:19:83:33:d1:83:66:86:c1:fa:97:0b:a6:
        51:cd:ef:f1:6e:7a:e6:e5:d5:fd:0d:06:5e:07:3d:47:17:01:
        fa:1b:85:73:9b:19:0d:b1:e1:32:31:eb:aa:27:74:ab:17:fc:
        0d:c1:dd:72:f2:71:96:94:2c:13:d1:8b:a2:bd:b5:1e:05:3a:
        97:38:2e:81:e4:5c:3e:de:b3:c6:ae:68:c7:40:f9:41:df:b1:
        49:e7:1d:fa:e4:e8:fe:0a:bc:37:fc:2f:d6:bd:f6:bb:12:b7:
        06:27:f3:7c:45:5c:2f:bb:4c:3d:7a:b7:57:53:e3:ef:31:8a:
        f4:e3:ce:b0:9c:9f:75:be:55:71:cd:e2:4c:f3:e9:60:25:fb:
        87:2e:33:5c:30:06:ca:e4:fa:09:36:42:61:bf:38:89:18:38:
        22:a1:61:31:ba:ea:9f:02:25:c3:10:6f:eb:63:de:7c:12:ab:
        12:25:3b:7b:c1:bd:62:ec:fe:07:d8:52:45:b8:5f:7e:90:84:
        86:37:88:ad:ca:cb:6c:ef:62:b6:42:04:fa:83:3d:ca:e2:70:
        31:18:3b:50:8a:50:69:b5:e0:9a:96:aa:ad:49:46:51:5c:cb:
        7b:6f:2b:c6
-----BEGIN CERTIFICATE-----
MIIDZDCCAkygAwIBAgIRANjJI0gPOCItftMEjP8Dm7AwDQYJKoZIhvcNAQELBQAw
EjEQMA4GA1UEAwwHcGVuZ3VpbjAeFw0yNDA2MjMyMjMzMDhaFw0yNjA5MjYyMjMz
MDhaMBcxFTATBgNVBAMMDDE5Mi4xNjguMS4yNjCCASIwDQYJKoZIhvcNAQEBBQAD
ggEPADCCAQoCggEBALGD4R3awNsHFVJ1OsLc3ZvvHbpR70SBz/k0CQjHhmyjZXLL
bj8aVscRYp+suacaJYQW4koTG4Fmd7V9d3N9n+NewKbNDYu5e0oVi9wsMSz0EQvL
bPAlCJ3ViuW75YNlpni0F2vQ6t0O2+oWp03c1mZdEbrCQmGOzZ9mu8O4UEkO5bqt
nEXf8Lxh81RI/v/syNWEvsDZj0VrCRsZV9poC0rdHmayuGCmVF08giMY3kGPK9M0
4jnH4oHqK7jfXXBS4K0GEgzqSUrpcQvmbu+29iQUudNGA0j8cUPY06YDISoT2XYu
e47k2lijQ2rGdzJy1QhCBbdjBNlWss52LrqbWFECAwEAAaOBrzCBrDAJBgNVHRME
AjAAMB0GA1UdDgQWBBRdRKNfYXMCW7ZqZ6p0DsUB/RedbTBNBgNVHSMERjBEgBQh
PFiy3kguY/Sacl/rm/5W8Pb5qKEWpBQwEjEQMA4GA1UEAwwHcGVuZ3VpboIUVrYy
15jrcD8QEzvB0AC7rmsaM7YwEwYDVR0lBAwwCgYIKwYBBQUHAwEwCwYDVR0PBAQD
AgWgMA8GA1UdEQQIMAaHBMCoARowDQYJKoZIhvcNAQELBQADggEBAD/ChYjPWJql
YMXYH0GNUzWZWzqtVg/SuRmDM9GDZobB+pcLplHN7/Fueubl1f0NBl4HPUcXAfob
hXObGQ2x4TIx66ondKsX/A3B3XLycZaULBPRi6K9tR4FOpc4LoHkXD7es8auaMdA
+UHfsUnnHfrk6P4KvDf8L9a99rsStwYn83xFXC+7TD16t1dT4+8xivTjzrCcn3W+
VXHN4kzz6WAl+4cuM1wwBsrk+gk2QmG/OIkYOCKhYTG66p8CJcMQb+tj3nwSqxIl
O3vBvWLs/gfYUkW4X36QhIY3iK3Ky2zvYrZCBPqDPcricDEYO1CKUGm14JqWqq1J
RlFcy3tvK8Y=
-----END CERTIFICATE-----
