Certificate:
    Data:
        Version: 3 (0x2)
        Serial Number:
            e6:8f:e8:d6:4d:01:bd:bc:55:83:50:c0:07:ff:4b:cf
        Signature Algorithm: sha256WithRSAEncryption
        Issuer: CN=penguin
        Validity
            Not Before: Jun 23 22:33:51 2024 GMT
            Not After : Sep 26 22:33:51 2026 GMT
        Subject: CN=client
        Subject Public Key Info:
            Public Key Algorithm: rsaEncryption
                Public-Key: (2048 bit)
                Modulus:
                    00:ec:62:65:f1:b3:d1:3c:1a:8b:ee:ee:4a:5b:5e:
                    61:54:da:26:ac:b5:fd:25:2c:33:64:6b:c7:d4:d6:
                    5f:25:52:61:a2:ca:87:9e:33:d8:9f:ba:3c:13:d6:
                    be:bf:62:78:a4:e4:aa:a7:19:2e:c4:5a:b9:31:7f:
                    ec:06:e4:80:26:28:59:5b:5d:f8:1b:2c:c8:e5:2a:
                    ca:32:51:0a:d8:2e:01:61:22:7d:c4:2f:0b:46:83:
                    53:e8:25:fd:a0:59:21:4b:fc:15:76:67:57:f7:a9:
                    c2:66:3c:1b:f8:7a:b0:f0:2d:ac:3a:ae:4e:ea:aa:
                    9a:ea:fe:f9:b1:3e:21:a2:dd:de:6e:40:e0:87:bb:
                    c0:ff:10:28:14:46:95:f7:c2:63:0c:75:3d:f2:3c:
                    02:ec:97:7d:b7:cd:b5:a1:6c:9e:0b:9e:9c:26:0f:
                    e0:e0:e8:78:55:41:ae:65:ff:c9:dd:1f:9e:b2:f0:
                    50:b6:7d:61:36:74:f6:ba:28:b2:f0:b2:f2:59:38:
                    75:6d:6a:e9:f8:3c:0a:4e:11:c3:83:88:3f:68:8a:
                    94:d9:ef:fd:bf:11:b9:70:4e:51:54:0f:a7:45:f9:
                    b8:e4:d5:50:5f:96:25:18:e7:1e:b3:d0:fa:83:d7:
                    2e:4b:85:1a:5f:73:c4:fe:87:5b:da:b3:ae:ee:bc:
                    bc:f5
                Exponent: 65537 (0x10001)
        X509v3 extensions:
            X509v3 Basic Constraints: 
                CA:FALSE
            X509v3 Subject Key Identifier: 
                44:4E:2C:18:A2:DF:5B:A7:46:70:AA:D5:30:62:05:75:09:23:A9:88
            X509v3 Authority Key Identifier: 
                keyid:21:3C:58:B2:DE:48:2E:63:F4:9A:72:5F:EB:9B:FE:56:F0:F6:F9:A8
                DirName:/CN=penguin
                serial:56:B6:32:D7:98:EB:70:3F:10:13:3B:C1:D0:00:BB:AE:6B:1A:33:B6
            X509v3 Extended Key Usage: 
                TLS Web Client Authentication
            X509v3 Key Usage: 
                Digital Signature
    Signature Algorithm: sha256WithRSAEncryption
    Signature Value:
        58:21:71:3c:3b:a3:9f:40:59:07:52:eb:31:a0:40:14:7f:ac:
        df:0c:40:45:bd:fe:c8:66:ac:2c:f8:53:65:20:c8:9a:4c:7a:
        69:94:bd:f4:0b:b8:74:d4:1e:20:ac:07:a7:4b:ca:66:ee:ca:
        53:b0:9a:53:d9:ea:5a:35:03:e7:ee:a8:55:a9:49:9a:8a:bb:
        5c:e8:01:df:cc:9f:16:b6:26:83:cf:65:b0:e0:7f:0e:8d:3a:
        fa:57:eb:59:32:79:76:2a:61:82:4d:19:70:8a:f3:4a:dd:f6:
        08:24:05:7f:02:be:6d:b9:d9:5e:9e:e7:0e:c2:5b:29:0a:5b:
        a9:70:24:1e:8a:1c:6d:f5:c4:53:f0:d3:04:f6:2a:17:67:0b:
        b8:4f:af:a1:f7:e5:92:be:45:ec:ed:c8:40:9c:9c:17:03:d7:
        fa:19:0a:86:cb:34:50:ae:08:13:04:0a:f6:69:eb:fa:12:50:
        62:f2:68:c4:55:01:ed:b4:ca:ae:d7:e5:4c:7a:a7:05:97:5d:
        d8:5e:2e:af:bc:01:5e:00:ec:b9:e6:28:dd:6d:df:aa:3f:e1:
        2b:fe:e2:37:c1:8f:95:ef:28:73:b0:8a:f2:45:2f:34:91:8c:
        8c:52:ef:50:f4:77:6c:a2:2e:64:8a:68:c0:94:e4:41:d8:eb:
        ef:67:6a:4f
-----BEGIN CERTIFICATE-----
MIIDTTCCAjWgAwIBAgIRAOaP6NZNAb28VYNQwAf/S88wDQYJKoZIhvcNAQELBQAw
EjEQMA4GA1UEAwwHcGVuZ3VpbjAeFw0yNDA2MjMyMjMzNTFaFw0yNjA5MjYyMjMz
NTFaMBExDzANBgNVBAMMBmNsaWVudDCCASIwDQYJKoZIhvcNAQEBBQADggEPADCC
AQoCggEBAOxiZfGz0Twai+7uSlteYVTaJqy1/SUsM2Rrx9TWXyVSYaLKh54z2J+6
PBPWvr9ieKTkqqcZLsRauTF/7AbkgCYoWVtd+BssyOUqyjJRCtguAWEifcQvC0aD
U+gl/aBZIUv8FXZnV/epwmY8G/h6sPAtrDquTuqqmur++bE+IaLd3m5A4Ie7wP8Q
KBRGlffCYwx1PfI8AuyXfbfNtaFsnguenCYP4ODoeFVBrmX/yd0fnrLwULZ9YTZ0
9roosvCy8lk4dW1q6fg8Ck4Rw4OIP2iKlNnv/b8RuXBOUVQPp0X5uOTVUF+WJRjn
HrPQ+oPXLkuFGl9zxP6HW9qzru68vPUCAwEAAaOBnjCBmzAJBgNVHRMEAjAAMB0G
A1UdDgQWBBRETiwYot9bp0ZwqtUwYgV1CSOpiDBNBgNVHSMERjBEgBQhPFiy3kgu
Y/Sacl/rm/5W8Pb5qKEWpBQwEjEQMA4GA1UEAwwHcGVuZ3VpboIUVrYy15jrcD8Q
EzvB0AC7rmsaM7YwEwYDVR0lBAwwCgYIKwYBBQUHAwIwCwYDVR0PBAQDAgeAMA0G
CSqGSIb3DQEBCwUAA4IBAQBYIXE8O6OfQFkHUusxoEAUf6zfDEBFvf7IZqws+FNl
IMiaTHpplL30C7h01B4grAenS8pm7spTsJpT2epaNQPn7qhVqUmairtc6AHfzJ8W
tiaDz2Ww4H8OjTr6V+tZMnl2KmGCTRlwivNK3fYIJAV/Ar5tudlenucOwlspClup
cCQeihxt9cRT8NME9ioXZwu4T6+h9+WSvkXs7chAnJwXA9f6GQqGyzRQrggTBAr2
aev6ElBi8mjEVQHttMqu1+VMeqcFl13YXi6vvAFeAOy55ijdbd+qP+Er/uI3wY+V
7yhzsIryRS80kYyMUu9Q9Hdsoi5kimjAlORB2OvvZ2pP
-----END CERTIFICATE-----
