Certificate:
    Data:
        Version: 3 (0x2)
        Serial Number:
            e6:d7:cb:12:30:01:88:2f:20:24:08:65:b6:82:4d:e7
        Signature Algorithm: sha256WithRSAEncryption
        Issuer: CN=penguin
        Validity
            Not Before: Jun 23 22:38:53 2024 GMT
            Not After : Sep 26 22:38:53 2026 GMT
        Subject: CN=client
        Subject Public Key Info:
            Public Key Algorithm: rsaEncryption
                Public-Key: (2048 bit)
                Modulus:
                    00:b7:6f:31:d8:cf:46:03:c6:ac:b6:4f:2d:e7:22:
                    b9:4e:23:78:d6:85:cc:b6:22:6d:18:68:47:68:40:
                    20:a4:80:c5:da:45:64:f5:f6:55:ff:3e:27:59:e7:
                    55:8b:ed:d9:6c:a8:9b:e0:52:b9:9f:3d:5b:60:7e:
                    7b:d0:a9:9d:cb:11:cb:b9:89:77:6d:92:6f:91:67:
                    60:fc:59:c1:5f:c3:d8:cb:fd:7a:69:68:4d:8f:d3:
                    8c:c7:03:71:de:ff:ce:5e:9f:4a:5d:30:d7:10:5b:
                    12:db:a2:5b:77:0b:b9:5a:58:1e:c5:2b:63:53:bd:
                    0d:b1:02:69:f3:62:8a:5b:47:1e:50:27:2d:e6:f2:
                    88:fa:b9:a7:23:ec:1e:00:16:d4:91:3a:df:cf:82:
                    90:79:5e:f6:65:f4:7f:f5:42:db:06:a7:be:21:5a:
                    02:84:3c:e2:76:16:bf:e5:f3:d6:51:e1:ea:bc:b1:
                    0f:65:20:d3:b6:35:5b:06:30:1d:d5:cb:49:ad:71:
                    11:6a:31:dd:38:53:1b:c3:09:fe:68:77:4e:ac:72:
                    8a:48:b8:70:38:55:68:b0:81:d6:5c:18:a0:9d:f0:
                    0c:73:cd:3e:79:9b:f3:90:bb:c8:32:b6:50:b4:a9:
                    5a:7d:a6:e7:e6:82:60:31:60:52:3d:c7:c7:53:19:
                    2b:f3
                Exponent: 65537 (0x10001)
        X509v3 extensions:
            X509v3 Basic Constraints: 
                CA:FALSE
            X509v3 Subject Key Identifier: 
                A8:C1:E2:E8:39:E2:86:80:51:2D:A8:42:57:BD:EF:B5:6C:DB:13:F4
            X509v3 Authority Key Identifier: 
                keyid:21:3C:58:B2:DE:48:2E:63:F4:9A:72:5F:EB:9B:FE:56:F0:F6:F9:A8
                DirName:/CN=penguin
                serial:56:B6:32:D7:98:EB:70:3F:10:13:3B:C1:D0:00:BB:AE:6B:1A:33:B6
            X509v3 Extended Key Usage: 
                TLS Web Client Authentication
            X509v3 Key Usage: 
                Digital Signature
    Signature Algorithm: sha256WithRSAEncryption
    Signature Value:
        b5:64:b1:d4:5c:80:a6:af:5d:87:fc:65:f4:d9:8b:a8:94:b8:
        88:9f:6c:62:e9:ac:48:af:67:96:21:9e:bd:35:3a:3d:7b:79:
        09:eb:b1:24:d3:23:91:18:0b:23:13:f7:69:60:15:61:67:a9:
        0f:70:65:bc:b7:04:94:25:93:ad:fc:60:71:ba:88:32:4c:42:
        80:39:82:2c:d4:2c:35:32:e0:2a:5a:ce:31:5b:b8:6c:57:3d:
        0d:39:d8:c8:dd:8e:7b:98:84:5a:bc:55:79:43:fa:65:c3:e3:
        c4:f2:29:a5:53:ce:6e:b0:a3:aa:2e:fa:03:4e:1d:b4:15:7e:
        49:78:94:3d:62:c3:b1:15:16:f0:fa:1a:51:89:74:bd:f2:ee:
        a4:19:f6:29:1a:2c:43:a8:61:bd:4d:c2:21:46:f1:78:06:26:
        82:51:49:0a:3a:64:80:61:f7:d4:32:b1:a7:a1:51:17:d9:91:
        b9:ae:89:42:7b:3f:eb:40:7f:fa:7e:73:43:57:66:53:5e:36:
        df:e2:59:92:e8:7c:41:69:4f:e5:1e:dd:e8:c7:a2:e9:68:21:
        30:58:39:a1:38:13:6e:c1:b9:b5:d6:68:96:10:fb:4b:70:2d:
        2c:24:09:5f:9e:18:3c:d4:4f:e8:52:3c:d8:43:eb:ad:ca:ba:
        19:76:28:61
-----BEGIN CERTIFICATE-----
MIIDTTCCAjWgAwIBAgIRAObXyxIwAYgvICQIZbaCTecwDQYJKoZIhvcNAQELBQAw
EjEQMA4GA1UEAwwHcGVuZ3VpbjAeFw0yNDA2MjMyMjM4NTNaFw0yNjA5MjYyMjM4
NTNaMBExDzANBgNVBAMMBmNsaWVudDCCASIwDQYJKoZIhvcNAQEBBQADggEPADCC
AQoCggEBALdvMdjPRgPGrLZPLeciuU4jeNaFzLYibRhoR2hAIKSAxdpFZPX2Vf8+
J1nnVYvt2Wyom+BSuZ89W2B+e9CpncsRy7mJd22Sb5FnYPxZwV/D2Mv9emloTY/T
jMcDcd7/zl6fSl0w1xBbEtuiW3cLuVpYHsUrY1O9DbECafNiiltHHlAnLebyiPq5
pyPsHgAW1JE638+CkHle9mX0f/VC2wanviFaAoQ84nYWv+Xz1lHh6ryxD2Ug07Y1
WwYwHdXLSa1xEWox3ThTG8MJ/mh3Tqxyiki4cDhVaLCB1lwYoJ3wDHPNPnmb85C7
yDK2ULSpWn2m5+aCYDFgUj3Hx1MZK/MCAwEAAaOBnjCBmzAJBgNVHRMEAjAAMB0G
A1UdDgQWBBSoweLoOeKGgFEtqEJXve+1bNsT9DBNBgNVHSMERjBEgBQhPFiy3kgu
Y/Sacl/rm/5W8Pb5qKEWpBQwEjEQMA4GA1UEAwwHcGVuZ3VpboIUVrYy15jrcD8Q
EzvB0AC7rmsaM7YwEwYDVR0lBAwwCgYIKwYBBQUHAwIwCwYDVR0PBAQDAgeAMA0G
CSqGSIb3DQEBCwUAA4IBAQC1ZLHUXICmr12H/GX02YuolLiIn2xi6axIr2eWIZ69
NTo9e3kJ67Ek0yORGAsjE/dpYBVhZ6kPcGW8twSUJZOt/GBxuogyTEKAOYIs1Cw1
MuAqWs4xW7hsVz0NOdjI3Y57mIRavFV5Q/plw+PE8imlU85usKOqLvoDTh20FX5J
eJQ9YsOxFRbw+hpRiXS98u6kGfYpGixDqGG9TcIhRvF4BiaCUUkKOmSAYffUMrGn
oVEX2ZG5rolCez/rQH/6fnNDV2ZTXjbf4lmS6HxBaU/lHt3ox6LpaCEwWDmhOBNu
wbm11miWEPtLcC0sJAlfnhg81E/oUjzYQ+utyroZdihh
-----END CERTIFICATE-----
