Certificate:
    Data:
        Version: 3 (0x2)
        Serial Number:
            2e:03:18:00:03:1e:92:d4:a1:e8:26:5b:44:40:dd:52
        Signature Algorithm: sha256WithRSAEncryption
        Issuer: CN=penguin
        Validity
            Not Before: Jun 23 21:43:57 2024 GMT
            Not After : Sep 26 21:43:57 2026 GMT
        Subject: CN=client
        Subject Public Key Info:
            Public Key Algorithm: rsaEncryption
                Public-Key: (2048 bit)
                Modulus:
                    00:b4:50:97:60:68:9f:a4:fd:d3:7b:38:20:82:80:
                    6f:67:85:1c:15:bd:3a:cc:c8:9b:27:0b:f7:9e:f7:
                    44:fe:28:64:c9:4e:6f:55:b7:4c:9b:d9:bb:a7:91:
                    17:40:8b:af:08:7d:76:b5:0a:1f:fa:a0:a7:a7:36:
                    1f:8e:56:f2:a3:49:7f:cd:b9:6f:f3:01:e6:17:52:
                    ee:48:5c:c0:88:3f:c9:dc:98:f0:f1:4a:38:6a:4c:
                    91:61:36:0d:b8:c8:45:6c:6f:93:a0:c4:a2:8e:90:
                    c2:a5:90:e2:f9:e9:fa:86:b2:c5:90:3f:ff:4d:6f:
                    b7:56:4e:35:68:f0:43:76:78:69:06:24:32:a0:c2:
                    73:97:ac:bd:7c:3e:d6:f3:12:79:4b:3c:02:f3:e1:
                    b2:b6:cd:65:5b:70:df:9d:1d:42:4d:82:23:e2:f9:
                    42:a6:e2:ca:a0:34:1e:cd:98:32:9b:b4:22:db:70:
                    dc:bf:05:68:3f:bc:ba:53:da:96:ec:87:92:8f:f2:
                    86:ae:92:85:24:22:87:b1:c4:e0:e3:b7:bc:5f:66:
                    44:9b:74:ba:30:47:88:b6:ea:f0:de:5d:64:24:38:
                    56:b1:7c:2f:41:20:7a:3a:e0:d9:14:73:a5:40:d6:
                    08:49:57:03:fb:16:f0:ca:fe:0f:c5:e2:8a:bc:03:
                    ac:95
                Exponent: 65537 (0x10001)
        X509v3 extensions:
            X509v3 Basic Constraints: 
                CA:FALSE
            X509v3 Subject Key Identifier: 
                8D:9E:8C:C1:E3:F5:29:24:60:7D:2B:3C:70:B6:0D:12:81:24:6E:6D
            X509v3 Authority Key Identifier: 
                keyid:2C:30:D1:61:80:65:A6:C8:B5:DA:0D:85:AF:E5:A1:80:B0:23:58:28
                DirName:/CN=penguin
                serial:62:AF:43:BE:AB:C0:9D:D9:3C:21:1D:3D:5F:1E:29:62:13:02:9C:53
            X509v3 Extended Key Usage: 
                TLS Web Client Authentication
            X509v3 Key Usage: 
                Digital Signature
    Signature Algorithm: sha256WithRSAEncryption
    Signature Value:
        c7:ca:e1:c5:4c:9f:3b:90:fb:59:99:e6:6a:f0:27:49:ee:12:
        d5:a1:27:d7:f0:b5:57:80:a8:14:e9:c4:99:35:6e:34:af:09:
        3b:d1:65:da:6b:62:9f:75:bd:1b:42:e2:19:39:51:d7:84:cf:
        41:e8:3a:51:51:b8:d3:8a:4a:ee:dc:2b:eb:74:56:77:f0:9c:
        8d:b4:24:46:e1:a7:8e:3f:ed:d9:0a:56:c6:65:94:47:bd:11:
        3c:93:be:cf:4b:92:77:43:d3:01:22:1c:8c:d0:a4:f2:ab:f6:
        6c:a5:0c:0f:82:77:30:e2:bb:20:3c:ea:52:34:d7:7d:5c:bc:
        b3:d7:5f:ab:93:4f:89:38:5d:73:9b:04:23:9c:31:69:56:52:
        04:d8:13:ba:2c:1d:c8:47:9a:28:08:95:ae:1d:df:ed:a7:16:
        41:4d:5d:01:ac:bf:bb:fc:0f:c8:cb:e4:66:2b:0d:9d:6a:c0:
        0a:4f:29:5e:82:cf:7d:b3:e5:4d:d5:bc:f2:f9:99:c2:15:0b:
        cc:ca:fc:25:76:18:e2:fc:49:39:2c:3b:a6:13:96:13:27:f8:
        a1:cc:fc:86:68:e3:bf:b6:74:df:89:ff:09:d2:76:89:a8:67:
        1c:8f:5f:2a:1d:0d:c7:7c:53:ae:71:99:f7:a1:60:72:48:03:
        91:eb:73:bf
-----BEGIN CERTIFICATE-----
MIIDTDCCAjSgAwIBAgIQLgMYAAMektSh6CZbREDdUjANBgkqhkiG9w0BAQsFADAS
MRAwDgYDVQQDDAdwZW5ndWluMB4XDTI0MDYyMzIxNDM1N1oXDTI2MDkyNjIxNDM1
N1owETEPMA0GA1UEAwwGY2xpZW50MIIBIjANBgkqhkiG9w0BAQEFAAOCAQ8AMIIB
CgKCAQEAtFCXYGifpP3TezgggoBvZ4UcFb06zMibJwv3nvdE/ihkyU5vVbdMm9m7
p5EXQIuvCH12tQof+qCnpzYfjlbyo0l/zblv8wHmF1LuSFzAiD/J3Jjw8Uo4akyR
YTYNuMhFbG+ToMSijpDCpZDi+en6hrLFkD//TW+3Vk41aPBDdnhpBiQyoMJzl6y9
fD7W8xJ5SzwC8+Gyts1lW3DfnR1CTYIj4vlCpuLKoDQezZgym7Qi23DcvwVoP7y6
U9qW7IeSj/KGrpKFJCKHscTg47e8X2ZEm3S6MEeIturw3l1kJDhWsXwvQSB6OuDZ
FHOlQNYISVcD+xbwyv4PxeKKvAOslQIDAQABo4GeMIGbMAkGA1UdEwQCMAAwHQYD
VR0OBBYEFI2ejMHj9SkkYH0rPHC2DRKBJG5tME0GA1UdIwRGMESAFCww0WGAZabI
tdoNha/loYCwI1gooRakFDASMRAwDgYDVQQDDAdwZW5ndWlughRir0O+q8Cd2Twh
HT1fHiliEwKcUzATBgNVHSUEDDAKBggrBgEFBQcDAjALBgNVHQ8EBAMCB4AwDQYJ
KoZIhvcNAQELBQADggEBAMfK4cVMnzuQ+1mZ5mrwJ0nuEtWhJ9fwtVeAqBTpxJk1
bjSvCTvRZdprYp91vRtC4hk5UdeEz0HoOlFRuNOKSu7cK+t0VnfwnI20JEbhp44/
7dkKVsZllEe9ETyTvs9LkndD0wEiHIzQpPKr9mylDA+CdzDiuyA86lI0131cvLPX
X6uTT4k4XXObBCOcMWlWUgTYE7osHchHmigIla4d3+2nFkFNXQGsv7v8D8jL5GYr
DZ1qwApPKV6Cz32z5U3VvPL5mcIVC8zK/CV2GOL8STksO6YTlhMn+KHM/IZo47+2
dN+J/wnSdomoZxyPXyodDcd8U65xmfehYHJIA5Hrc78=
-----END CERTIFICATE-----
